target datalayout = "e-m:e-p270:32:32-p271:32:32-p272:64:64-i64:64-i128:128-f80:128-n8:16:32:64-S128"
target triple = "x86_64-pc-linux-gnu"

%struct.CLzmaDec = type { %struct._CLzmaProps, ptr, ptr, ptr, i32, i32, i64, i64, i32, i32, i32, [4 x i32], i32, i32, i32, i32, i32, [20 x i8] }
%struct._CLzmaProps = type { i32, i32, i32, i32 }
%struct.ISzAlloc = type { ptr, ptr }

; Function Attrs: nounwind uwtable
define void @LzmaDec_FreeProbs(ptr noundef %0, ptr noundef %1) #0 {
  %3 = alloca ptr, align 8
  %4 = alloca ptr, align 8
  store ptr %0, ptr %3, align 8
  store ptr %1, ptr %4, align 8
  %5 = load ptr, ptr %4, align 8
  %6 = getelementptr inbounds %struct.ISzAlloc, ptr %5, i32 0, i32 1
  %7 = load ptr, ptr %6, align 8
  %8 = load ptr, ptr %4, align 8
  %9 = load ptr, ptr %3, align 8
  %10 = getelementptr inbounds %struct.CLzmaDec, ptr %9, i32 0, i32 1
  %11 = load ptr, ptr %10, align 8
  call void %7(ptr noundef %8, ptr noundef %11)
  %12 = load ptr, ptr %3, align 8
  %13 = getelementptr inbounds %struct.CLzmaDec, ptr %12, i32 0, i32 1
  store ptr null, ptr %13, align 8
  ret void
}

; Function Attrs: nounwind uwtable
define internal i32 @LzmaDec_AllocateProbs2(ptr noundef %0, ptr noundef %1, ptr noundef %2) #0 {
  %4 = alloca i32, align 4
  %5 = alloca ptr, align 8
  %6 = alloca ptr, align 8
  %7 = alloca ptr, align 8
  %8 = alloca i32, align 4
  store ptr %0, ptr %5, align 8
  store ptr %1, ptr %6, align 8
  store ptr %2, ptr %7, align 8
  %9 = load ptr, ptr %6, align 8
  %10 = getelementptr inbounds %struct._CLzmaProps, ptr %9, i32 0, i32 0
  %11 = load i32, ptr %10, align 4
  %12 = load ptr, ptr %6, align 8
  %13 = getelementptr inbounds %struct._CLzmaProps, ptr %12, i32 0, i32 1
  %14 = load i32, ptr %13, align 4
  %15 = add i32 %11, %14
  %16 = shl i32 768, %15
  %17 = add i32 1846, %16
  store i32 %17, ptr %8, align 4
  %18 = load ptr, ptr %5, align 8
  %19 = getelementptr inbounds %struct.CLzmaDec, ptr %18, i32 0, i32 1
  %20 = load ptr, ptr %19, align 8
  %21 = icmp eq ptr %20, null
  br i1 %21, label %28, label %22

22:                                               ; preds = %3
  %23 = load i32, ptr %8, align 4
  %24 = load ptr, ptr %5, align 8
  %25 = getelementptr inbounds %struct.CLzmaDec, ptr %24, i32 0, i32 15
  %26 = load i32, ptr %25, align 8
  %27 = icmp ne i32 %23, %26
  br i1 %27, label %28, label %50

28:                                               ; preds = %22, %3
  %29 = load ptr, ptr %5, align 8
  %30 = load ptr, ptr %7, align 8
  call void @LzmaDec_FreeProbs(ptr noundef %29, ptr noundef %30)
  %31 = load ptr, ptr %7, align 8
  %32 = getelementptr inbounds %struct.ISzAlloc, ptr %31, i32 0, i32 0
  %33 = load ptr, ptr %32, align 8
  %34 = load ptr, ptr %7, align 8
  %35 = load i32, ptr %8, align 4
  %36 = zext i32 %35 to i64
  %37 = mul i64 %36, 2
  %38 = call ptr %33(ptr noundef %34, i64 noundef %37)
  %39 = load ptr, ptr %5, align 8
  %40 = getelementptr inbounds %struct.CLzmaDec, ptr %39, i32 0, i32 1
  store ptr %38, ptr %40, align 8
  %41 = load i32, ptr %8, align 4
  %42 = load ptr, ptr %5, align 8
  %43 = getelementptr inbounds %struct.CLzmaDec, ptr %42, i32 0, i32 15
  store i32 %41, ptr %43, align 8
  %44 = load ptr, ptr %5, align 8
  %45 = getelementptr inbounds %struct.CLzmaDec, ptr %44, i32 0, i32 1
  %46 = load ptr, ptr %45, align 8
  %47 = icmp eq ptr %46, null
  br i1 %47, label %48, label %49

48:                                               ; preds = %28
  store i32 2, ptr %4, align 4
  br label %51

49:                                               ; preds = %28
  br label %50

50:                                               ; preds = %49, %22
  store i32 0, ptr %4, align 4
  br label %51

51:                                               ; preds = %50, %48
  %52 = load i32, ptr %4, align 4
  ret i32 %52
}

; Function Attrs: nounwind uwtable
define i32 @LzmaProps_Decode(ptr noundef %0, ptr noundef %1, i32 noundef %2) #0 {
  %4 = alloca i32, align 4
  %5 = alloca ptr, align 8
  %6 = alloca ptr, align 8
  %7 = alloca i32, align 4
  %8 = alloca i32, align 4
  %9 = alloca i8, align 1
  store ptr %0, ptr %5, align 8
  store ptr %1, ptr %6, align 8
  store i32 %2, ptr %7, align 4
  %10 = load i32, ptr %7, align 4
  %11 = icmp ult i32 %10, 5
  br i1 %11, label %12, label %13

12:                                               ; preds = %3
  store i32 4, ptr %4, align 4
  br label %71

13:                                               ; preds = %3
  %14 = load ptr, ptr %6, align 8
  %15 = getelementptr inbounds i8, ptr %14, i64 1
  %16 = load i8, ptr %15, align 1
  %17 = zext i8 %16 to i32
  %18 = load ptr, ptr %6, align 8
  %19 = getelementptr inbounds i8, ptr %18, i64 2
  %20 = load i8, ptr %19, align 1
  %21 = zext i8 %20 to i32
  %22 = shl i32 %21, 8
  %23 = or i32 %17, %22
  %24 = load ptr, ptr %6, align 8
  %25 = getelementptr inbounds i8, ptr %24, i64 3
  %26 = load i8, ptr %25, align 1
  %27 = zext i8 %26 to i32
  %28 = shl i32 %27, 16
  %29 = or i32 %23, %28
  %30 = load ptr, ptr %6, align 8
  %31 = getelementptr inbounds i8, ptr %30, i64 4
  %32 = load i8, ptr %31, align 1
  %33 = zext i8 %32 to i32
  %34 = shl i32 %33, 24
  %35 = or i32 %29, %34
  store i32 %35, ptr %8, align 4
  br label %36

36:                                               ; preds = %13
  %37 = load i32, ptr %8, align 4
  %38 = icmp ult i32 %37, 4096
  br i1 %38, label %39, label %40

39:                                               ; preds = %36
  store i32 4096, ptr %8, align 4
  br label %40

40:                                               ; preds = %39, %36
  %41 = load i32, ptr %8, align 4
  %42 = load ptr, ptr %5, align 8
  %43 = getelementptr inbounds %struct._CLzmaProps, ptr %42, i32 0, i32 3
  store i32 %41, ptr %43, align 4
  %44 = load ptr, ptr %6, align 8
  %45 = getelementptr inbounds i8, ptr %44, i64 0
  %46 = load i8, ptr %45, align 1
  store i8 %46, ptr %9, align 1
  %47 = load i8, ptr %9, align 1
  %48 = zext i8 %47 to i32
  %49 = icmp sge i32 %48, 225
  br i1 %49, label %50, label %51

50:                                               ; preds = %40
  store i32 4, ptr %4, align 4
  br label %71

51:                                               ; preds = %40
  %52 = load i8, ptr %9, align 1
  %53 = zext i8 %52 to i32
  %54 = srem i32 %53, 9
  %55 = load ptr, ptr %5, align 8
  %56 = getelementptr inbounds %struct._CLzmaProps, ptr %55, i32 0, i32 0
  store i32 %54, ptr %56, align 4
  %57 = load i8, ptr %9, align 1
  %58 = zext i8 %57 to i32
  %59 = sdiv i32 %58, 9
  %60 = trunc i32 %59 to i8
  store i8 %60, ptr %9, align 1
  %61 = load i8, ptr %9, align 1
  %62 = zext i8 %61 to i32
  %63 = sdiv i32 %62, 5
  %64 = load ptr, ptr %5, align 8
  %65 = getelementptr inbounds %struct._CLzmaProps, ptr %64, i32 0, i32 2
  store i32 %63, ptr %65, align 4
  %66 = load i8, ptr %9, align 1
  %67 = zext i8 %66 to i32
  %68 = srem i32 %67, 5
  %69 = load ptr, ptr %5, align 8
  %70 = getelementptr inbounds %struct._CLzmaProps, ptr %69, i32 0, i32 1
  store i32 %68, ptr %70, align 4
  store i32 0, ptr %4, align 4
  br label %71

71:                                               ; preds = %51, %50, %12
  %72 = load i32, ptr %4, align 4
  ret i32 %72
}

; Function Attrs: nounwind uwtable
define i32 @LzmaDec_AllocateProbs(ptr noundef %0, ptr noundef %1, i32 noundef %2, ptr noundef %3) #0 {
  %5 = alloca i32, align 4
  %6 = alloca ptr, align 8
  %7 = alloca ptr, align 8
  %8 = alloca i32, align 4
  %9 = alloca ptr, align 8
  %10 = alloca %struct._CLzmaProps, align 4
  %11 = alloca i32, align 4
  %12 = alloca i32, align 4
  store ptr %0, ptr %6, align 8
  store ptr %1, ptr %7, align 8
  store i32 %2, ptr %8, align 4
  store ptr %3, ptr %9, align 8
  %13 = load ptr, ptr %7, align 8
  %14 = load i32, ptr %8, align 4
  %15 = call i32 @LzmaProps_Decode(ptr noundef %10, ptr noundef %13, i32 noundef %14)
  store i32 %15, ptr %11, align 4
  %16 = load i32, ptr %11, align 4
  %17 = icmp ne i32 %16, 0
  br i1 %17, label %18, label %20

18:                                               ; preds = %4
  %19 = load i32, ptr %11, align 4
  store i32 %19, ptr %5, align 4
  br label %31

20:                                               ; preds = %4
  %21 = load ptr, ptr %6, align 8
  %22 = load ptr, ptr %9, align 8
  %23 = call i32 @LzmaDec_AllocateProbs2(ptr noundef %21, ptr noundef %10, ptr noundef %22)
  store i32 %23, ptr %12, align 4
  %24 = load i32, ptr %12, align 4
  %25 = icmp ne i32 %24, 0
  br i1 %25, label %26, label %28

26:                                               ; preds = %20
  %27 = load i32, ptr %12, align 4
  store i32 %27, ptr %5, align 4
  br label %31

28:                                               ; preds = %20
  %29 = load ptr, ptr %6, align 8
  %30 = getelementptr inbounds %struct.CLzmaDec, ptr %29, i32 0, i32 0
  call void @llvm.memcpy.p0.p0.i64(ptr align 8 %30, ptr align 4 %10, i64 16, i1 false)
  store i32 0, ptr %5, align 4
  br label %31

31:                                               ; preds = %28, %26, %18
  %32 = load i32, ptr %5, align 4
  ret i32 %32
}